target datalayout = "e-m:e-p270:32:32-p271:32:32-p272:64:64-i64:64-i128:128-f80:128-n8:16:32:64-S128"
target triple = "x86_64-pc-linux-gnu"

%"struct.faiss::ClusteringParameters" = type { i32, i32, i8, i8, i8, i8, i8, i32, i32, i32, i64 }
%"class.std::vector" = type { %"struct.std::_Vector_base" }
%"struct.std::_Vector_base" = type { %"struct.std::_Vector_base<float, std::allocator<float>>::_Vector_impl" }
%"struct.std::_Vector_base<float, std::allocator<float>>::_Vector_impl" = type { %"struct.std::_Vector_base<float, std::allocator<float>>::_Vector_impl_data" }
%"struct.std::_Vector_base<float, std::allocator<float>>::_Vector_impl_data" = type { ptr, ptr, ptr }
%"struct.faiss::ProductQuantizer" = type { %"struct.faiss::Quantizer", i64, i64, i64, i64, i8, i32, %"struct.faiss::ClusteringParameters", ptr, %"class.std::vector", %"class.std::vector", %"class.std::vector", %"class.std::vector" }
%"struct.faiss::Quantizer" = type { ptr, i64, i64 }

; Function Attrs: mustprogress uwtable
define void @_ZNK5faiss16ProductQuantizer12compute_codeEPKfPh(ptr noundef nonnull align 8 dereferenceable(208) %0, ptr noundef %1, ptr noundef %2) #0 align 2 {
  %4 = alloca ptr, align 8
  %5 = alloca ptr, align 8
  %6 = alloca ptr, align 8
  store ptr %0, ptr %4, align 8
  store ptr %1, ptr %5, align 8
  store ptr %2, ptr %6, align 8
  %7 = load ptr, ptr %4, align 8
  %8 = getelementptr inbounds %"struct.faiss::ProductQuantizer", ptr %7, i32 0, i32 2
  %9 = load i64, ptr %8, align 8
  switch i64 %9, label %16 [
    i64 8, label %10
    i64 16, label %13
  ]

10:                                               ; preds = %3
  %11 = load ptr, ptr %5, align 8
  %12 = load ptr, ptr %6, align 8
  call void @_ZN5faiss12compute_codeINS_10PQEncoder8EEEvRKNS_16ProductQuantizerEPKfPh(ptr noundef nonnull align 8 dereferenceable(208) %7, ptr noundef %11, ptr noundef %12)
  br label %19

13:                                               ; preds = %3
  %14 = load ptr, ptr %5, align 8
  %15 = load ptr, ptr %6, align 8
  call void @_ZN5faiss12compute_codeINS_11PQEncoder16EEEvRKNS_16ProductQuantizerEPKfPh(ptr noundef nonnull align 8 dereferenceable(208) %7, ptr noundef %14, ptr noundef %15)
  br label %19

16:                                               ; preds = %3
  %17 = load ptr, ptr %5, align 8
  %18 = load ptr, ptr %6, align 8
  call void @_ZN5faiss12compute_codeINS_16PQEncoderGenericEEEvRKNS_16ProductQuantizerEPKfPh(ptr noundef nonnull align 8 dereferenceable(208) %7, ptr noundef %17, ptr noundef %18)
  br label %19

19:                                               ; preds = %16, %13, %10
  ret void
}