; Function Attrs: mustprogress uwtable
define void @_ZNK5faiss16ProductQuantizer12compute_codeEPKfPh(ptr noundef nonnull align 8 dereferenceable(208) %0, ptr noundef %1, ptr noundef %2) local_unnamed_addr #0 align 2 {
  %4 = getelementptr inbounds i8, ptr %0, i64 32
  %5 = load i64, ptr %4, align 8
  switch i64 %5, label %8 [
    i64 8, label %6
    i64 16, label %7
  ]

6:                                                ; preds = %3
  tail call void @_ZN5faiss12compute_codeINS_10PQEncoder8EEEvRKNS_16ProductQuantizerEPKfPh(ptr noundef nonnull align 8 dereferenceable(208) %0, ptr noundef %1, ptr noundef %2)
  br label %9

7:                                                ; preds = %3
  tail call void @_ZN5faiss12compute_codeINS_11PQEncoder16EEEvRKNS_16ProductQuantizerEPKfPh(ptr noundef nonnull align 8 dereferenceable(208) %0, ptr noundef %1, ptr noundef %2)
  br label %9

8:                                                ; preds = %3
  tail call void @_ZN5faiss12compute_codeINS_16PQEncoderGenericEEEvRKNS_16ProductQuantizerEPKfPh(ptr noundef nonnull align 8 dereferenceable(208) %0, ptr noundef %1, ptr noundef %2)
  br label %9

9:                                                ; preds = %8, %7, %6
  ret void
}